target datalayout = "e-m:e-p270:32:32-p271:32:32-p272:64:64-i64:64-i128:128-f80:128-n8:16:32:64-S128"
target triple = "x86_64-pc-linux-gnu"

%struct.part_row_data_t = type { ptr, i32, i32, ptr, i32 }
%struct.part_res_record = type { ptr, i16, ptr, i8, ptr }

; Function Attrs: nounwind uwtable
define internal void @_swap_rows(ptr noundef %0, ptr noundef %1) #0 {
  %3 = alloca ptr, align 8
  %4 = alloca ptr, align 8
  %5 = alloca %struct.part_row_data_t, align 8
  store ptr %0, ptr %3, align 8
  store ptr %1, ptr %4, align 8
  call void @llvm.lifetime.start.p0(i64 32, ptr %5) #5
  %6 = load ptr, ptr %3, align 8
  call void @llvm.memcpy.p0.p0.i64(ptr align 8 %5, ptr align 8 %6, i64 32, i1 false)
  %7 = load ptr, ptr %3, align 8
  %8 = load ptr, ptr %4, align 8
  call void @llvm.memcpy.p0.p0.i64(ptr align 8 %7, ptr align 8 %8, i64 32, i1 false)
  %9 = load ptr, ptr %4, align 8
  call void @llvm.memcpy.p0.p0.i64(ptr align 8 %9, ptr align 8 %5, i64 32, i1 false)
  call void @llvm.lifetime.end.p0(i64 32, ptr %5) #5
  ret void
}

; Function Attrs: nounwind uwtable
define dso_local void @part_data_sort_res(ptr noundef %0) #0 {
  %2 = alloca ptr, align 8
  %3 = alloca i32, align 4
  %4 = alloca i32, align 4
  %5 = alloca i32, align 4
  store ptr %0, ptr %2, align 8
  call void @llvm.lifetime.start.p0(i64 4, ptr %3) #5
  call void @llvm.lifetime.start.p0(i64 4, ptr %4) #5
  %6 = load ptr, ptr %2, align 8
  %7 = getelementptr inbounds nuw %struct.part_res_record, ptr %6, i32 0, i32 4
  %8 = load ptr, ptr %7, align 8
  %9 = icmp ne ptr %8, null
  br i1 %9, label %11, label %10

10:                                               ; preds = %1
  store i32 1, ptr %5, align 4
  br label %69

11:                                               ; preds = %1
  store i32 0, ptr %3, align 4
  br label %12

12:                                               ; preds = %65, %11
  %13 = load i32, ptr %3, align 4
  %14 = load ptr, ptr %2, align 8
  %15 = getelementptr inbounds nuw %struct.part_res_record, ptr %14, i32 0, i32 1
  %16 = load i16, ptr %15, align 8
  %17 = zext i16 %16 to i32
  %18 = icmp ult i32 %13, %17
  br i1 %18, label %19, label %68

19:                                               ; preds = %12
  %20 = load i32, ptr %3, align 4
  %21 = add i32 %20, 1
  store i32 %21, ptr %4, align 4
  br label %22

22:                                               ; preds = %61, %19
  %23 = load i32, ptr %4, align 4
  %24 = load ptr, ptr %2, align 8
  %25 = getelementptr inbounds nuw %struct.part_res_record, ptr %24, i32 0, i32 1
  %26 = load i16, ptr %25, align 8
  %27 = zext i16 %26 to i32
  %28 = icmp ult i32 %23, %27
  br i1 %28, label %29, label %64

29:                                               ; preds = %22
  %30 = load ptr, ptr %2, align 8
  %31 = getelementptr inbounds nuw %struct.part_res_record, ptr %30, i32 0, i32 4
  %32 = load ptr, ptr %31, align 8
  %33 = load i32, ptr %4, align 4
  %34 = zext i32 %33 to i64
  %35 = getelementptr inbounds nuw %struct.part_row_data_t, ptr %32, i64 %34
  %36 = getelementptr inbounds nuw %struct.part_row_data_t, ptr %35, i32 0, i32 4
  %37 = load i32, ptr %36, align 8
  %38 = load ptr, ptr %2, align 8
  %39 = getelementptr inbounds nuw %struct.part_res_record, ptr %38, i32 0, i32 4
  %40 = load ptr, ptr %39, align 8
  %41 = load i32, ptr %3, align 4
  %42 = zext i32 %41 to i64
  %43 = getelementptr inbounds nuw %struct.part_row_data_t, ptr %40, i64 %42
  %44 = getelementptr inbounds nuw %struct.part_row_data_t, ptr %43, i32 0, i32 4
  %45 = load i32, ptr %44, align 8
  %46 = icmp ugt i32 %37, %45
  br i1 %46, label %47, label %60

47:                                               ; preds = %29
  %48 = load ptr, ptr %2, align 8
  %49 = getelementptr inbounds nuw %struct.part_res_record, ptr %48, i32 0, i32 4
  %50 = load ptr, ptr %49, align 8
  %51 = load i32, ptr %3, align 4
  %52 = zext i32 %51 to i64
  %53 = getelementptr inbounds nuw %struct.part_row_data_t, ptr %50, i64 %52
  %54 = load ptr, ptr %2, align 8
  %55 = getelementptr inbounds nuw %struct.part_res_record, ptr %54, i32 0, i32 4
  %56 = load ptr, ptr %55, align 8
  %57 = load i32, ptr %4, align 4
  %58 = zext i32 %57 to i64
  %59 = getelementptr inbounds nuw %struct.part_row_data_t, ptr %56, i64 %58
  call void @_swap_rows(ptr noundef %53, ptr noundef %59)
  br label %60

60:                                               ; preds = %47, %29
  br label %61

61:                                               ; preds = %60
  %62 = load i32, ptr %4, align 4
  %63 = add i32 %62, 1
  store i32 %63, ptr %4, align 4
  br label %22, !llvm.loop !25

64:                                               ; preds = %22
  br label %65

65:                                               ; preds = %64
  %66 = load i32, ptr %3, align 4
  %67 = add i32 %66, 1
  store i32 %67, ptr %3, align 4
  br label %12, !llvm.loop !26

68:                                               ; preds = %12
  store i32 1, ptr %5, align 4
  br label %69

69:                                               ; preds = %68, %10
  call void @llvm.lifetime.end.p0(i64 4, ptr %4) #5
  call void @llvm.lifetime.end.p0(i64 4, ptr %3) #5
  ret void
}