; Function Attrs: nofree norecurse nosync nounwind memory(readwrite, inaccessiblemem: none) uwtable
define dso_local void @part_data_sort_res(ptr noundef readonly captures(none) %0) local_unnamed_addr #4 {
  %2 = alloca %struct.part_row_data_t, align 8
  %3 = getelementptr inbounds nuw i8, ptr %0, i64 32
  %4 = load ptr, ptr %3, align 8
  %.not = icmp eq ptr %4, null
  br i1 %.not, label %.loopexit16, label %.preheader

.preheader:                                       ; preds = %1
  %5 = getelementptr inbounds nuw i8, ptr %0, i64 8
  %6 = load i16, ptr %5, align 8
  %.not20 = icmp eq i16 %6, 0
  br i1 %.not20, label %.loopexit16, label %.lr.ph19

.loopexit.loopexit:                               ; preds = %23
  %.pre28 = zext i16 %24 to i64
  br label %.loopexit

.loopexit:                                        ; preds = %.loopexit.loopexit, %.lr.ph19
  %.pre-phi29 = phi i64 [ %.pre28, %.loopexit.loopexit ], [ %10, %.lr.ph19 ]
  %7 = phi i16 [ %24, %.loopexit.loopexit ], [ %9, %.lr.ph19 ]
  %8 = icmp samesign ult i64 %indvars.iv.next25, %.pre-phi29
  %indvars.iv.next = add nuw nsw i64 %indvars.iv, 1
  br i1 %8, label %.lr.ph19, label %.loopexit16, !llvm.loop !17

.lr.ph19:                                         ; preds = %.preheader, %.loopexit
  %9 = phi i16 [ %7, %.loopexit ], [ %6, %.preheader ]
  %indvars.iv24 = phi i64 [ %indvars.iv.next25, %.loopexit ], [ 0, %.preheader ]
  %indvars.iv = phi i64 [ %indvars.iv.next, %.loopexit ], [ 1, %.preheader ]
  %indvars.iv.next25 = add nuw nsw i64 %indvars.iv24, 1
  %10 = zext i16 %9 to i64
  %11 = icmp samesign ult i64 %indvars.iv.next25, %10
  br i1 %11, label %.lr.ph, label %.loopexit

.lr.ph:                                           ; preds = %.lr.ph19, %23
  %12 = phi i16 [ %24, %23 ], [ %9, %.lr.ph19 ]
  %13 = phi i16 [ %25, %23 ], [ %9, %.lr.ph19 ]
  %indvars.iv21 = phi i64 [ %indvars.iv.next22, %23 ], [ %indvars.iv, %.lr.ph19 ]
  %14 = load ptr, ptr %3, align 8
  %15 = getelementptr inbounds nuw %struct.part_row_data_t, ptr %14, i64 %indvars.iv21
  %16 = getelementptr inbounds nuw i8, ptr %15, i64 24
  %17 = load i32, ptr %16, align 8
  %18 = getelementptr inbounds nuw %struct.part_row_data_t, ptr %14, i64 %indvars.iv24
  %19 = getelementptr inbounds nuw i8, ptr %18, i64 24
  %20 = load i32, ptr %19, align 8
  %21 = icmp ugt i32 %17, %20
  br i1 %21, label %22, label %23

22:                                               ; preds = %.lr.ph
  call void @llvm.lifetime.start.p0(i64 32, ptr nonnull %2)
  call void @llvm.memcpy.p0.p0.i64(ptr noundef nonnull align 8 dereferenceable(32) %2, ptr noundef nonnull align 8 dereferenceable(32) %18, i64 32, i1 false)
  tail call void @llvm.memcpy.p0.p0.i64(ptr noundef nonnull align 8 dereferenceable(32) %18, ptr noundef nonnull align 8 dereferenceable(32) %15, i64 32, i1 false)
  call void @llvm.memcpy.p0.p0.i64(ptr noundef nonnull align 8 dereferenceable(32) %15, ptr noundef nonnull align 8 dereferenceable(32) %2, i64 32, i1 false)
  call void @llvm.lifetime.end.p0(i64 32, ptr nonnull %2)
  %.pre = load i16, ptr %5, align 8
  br label %23

23:                                               ; preds = %.lr.ph, %22
  %24 = phi i16 [ %12, %.lr.ph ], [ %.pre, %22 ]
  %25 = phi i16 [ %13, %.lr.ph ], [ %.pre, %22 ]
  %indvars.iv.next22 = add nuw nsw i64 %indvars.iv21, 1
  %26 = zext i16 %25 to i64
  %27 = icmp samesign ult i64 %indvars.iv.next22, %26
  br i1 %27, label %.lr.ph, label %.loopexit.loopexit, !llvm.loop !18

.loopexit16:                                      ; preds = %.loopexit, %.preheader, %1
  ret void
}